target datalayout = "e-m:e-p270:32:32-p271:32:32-p272:64:64-i64:64-i128:128-f80:128-n8:16:32:64-S128"
target triple = "x86_64-pc-linux-gnu"

%struct.prte_oob_base_t = type { i32, i32, i32, i32, i32, %struct.pmix_list_t, i32, %struct.pmix_list_t, i32, i32, i8, ptr, ptr, ptr, ptr, i8, ptr, ptr, ptr, ptr, %struct.pmix_list_t, ptr, i32, %struct.pmix_list_t, %struct.pmix_thread_t, i8, %struct.timeval, [2 x i32], i32, i32, i32, i32, i32 }
%struct.pmix_list_t = type { %struct.pmix_object_t, %struct.pmix_list_item_t, i64 }
%struct.pmix_object_t = type { %union.pthread_mutex_t, ptr, i32, %struct.pmix_tma }
%union.pthread_mutex_t = type { %struct.__pthread_mutex_s }
%struct.__pthread_mutex_s = type { i32, i32, i32, i32, i32, i16, i16, %struct.__pthread_internal_list }
%struct.__pthread_internal_list = type { ptr, ptr }
%struct.pmix_tma = type { ptr, ptr, ptr, ptr, ptr, ptr, ptr, ptr }
%struct.pmix_list_item_t = type { %struct.pmix_object_t, ptr, ptr, i32 }
%struct.pmix_thread_t = type { %struct.pmix_object_t, ptr, ptr, i64 }
%struct.timeval = type { i64, i64 }
%struct.prte_process_info_t = type { %struct.pmix_proc, %struct.pmix_proc, ptr, %struct.pmix_proc, i32, i32, i32, ptr, ptr, i32, i8, ptr, i16, ptr, ptr, i8, ptr, i8 }
%struct.pmix_proc = type { [256 x i8], i32 }
%struct.pmix_output_desc_t = type { i8, i8, i32, i8, i32, ptr, ptr, i32, ptr, i32, i8, i8, i8, i8, ptr, i32, i32 }
%struct.event = type { %struct.event_callback, %union.anon.0, i32, ptr, %union.anon.2, i16, i16, %struct.timeval }
%struct.event_callback = type { %struct.anon, i16, i8, i8, %union.anon, ptr }
%struct.anon = type { ptr, ptr }
%union.anon = type { ptr }
%union.anon.0 = type { %struct.anon.1 }
%struct.anon.1 = type { ptr, ptr }
%union.anon.2 = type { %struct.anon.3 }
%struct.anon.3 = type { %struct.anon.4, %struct.timeval }
%struct.anon.4 = type { ptr, ptr }
%struct.prte_oob_tcp_peer_t = type { %struct.pmix_list_item_t, %struct.pmix_proc, ptr, i32, %struct.pmix_list_t, ptr, i32, i32, %struct.event, i8, %struct.event, i8, %struct.event, i8, %struct.pmix_list_t, ptr, ptr }
%struct.prte_oob_tcp_hdr_t = type { %struct.pmix_proc, %struct.pmix_proc, i32, i32, i32, i8, [32 x i8] }

@prte_oob_base = external global %struct.prte_oob_base_t, align 8
@prte_process_info = external global %struct.prte_process_info_t, align 8
@pmix_output_info = external global [0 x %struct.pmix_output_desc_t], align 8
@prte_version_string = external constant [0 x i8], align 1
@.str.60 = private unnamed_addr constant [20 x i8] c"%s SEND CONNECT ACK\00", align 1

; Function Attrs: inlinehint nounwind uwtable
define internal i32 @__bswap_32(i32 noundef %0) #2 {
  %2 = alloca i32, align 4
  store i32 %0, ptr %2, align 4, !tbaa !3
  %3 = load i32, ptr %2, align 4, !tbaa !3
  %4 = and i32 %3, -16777216
  %5 = lshr i32 %4, 24
  %6 = load i32, ptr %2, align 4, !tbaa !3
  %7 = and i32 %6, 16711680
  %8 = lshr i32 %7, 8
  %9 = or i32 %5, %8
  %10 = load i32, ptr %2, align 4, !tbaa !3
  %11 = and i32 %10, 65280
  %12 = shl i32 %11, 8
  %13 = or i32 %9, %12
  %14 = load i32, ptr %2, align 4, !tbaa !3
  %15 = and i32 %14, 255
  %16 = shl i32 %15, 24
  %17 = or i32 %13, %16
  ret i32 %17
}

; Function Attrs: inlinehint nounwind uwtable
define internal zeroext i16 @__bswap_16(i16 noundef zeroext %0) #2 {
  %2 = alloca i16, align 2
  store i16 %0, ptr %2, align 2, !tbaa !7
  %3 = load i16, ptr %2, align 2, !tbaa !7
  %4 = zext i16 %3 to i32
  %5 = ashr i32 %4, 8
  %6 = and i32 %5, 255
  %7 = load i16, ptr %2, align 2, !tbaa !7
  %8 = zext i16 %7 to i32
  %9 = and i32 %8, 255
  %10 = shl i32 %9, 8
  %11 = or i32 %6, %10
  %12 = trunc i32 %11 to i16
  ret i16 %12
}

; Function Attrs: nounwind uwtable
define internal i32 @tcp_peer_send_connect_ack(ptr noundef %0) #0 {
  %2 = alloca i32, align 4
  %3 = alloca ptr, align 8
  %4 = alloca ptr, align 8
  %5 = alloca %struct.prte_oob_tcp_hdr_t, align 4
  %6 = alloca i16, align 2
  %7 = alloca i64, align 8
  %8 = alloca i64, align 8
  %9 = alloca i32, align 4
  store ptr %0, ptr %3, align 8, !tbaa !9
  call void @llvm.lifetime.start.p0(i64 8, ptr %4) #12
  call void @llvm.lifetime.start.p0(i64 568, ptr %5) #12
  call void @llvm.lifetime.start.p0(i64 2, ptr %6) #12
  %10 = call zeroext i16 @__bswap_16(i16 noundef zeroext 1)
  store i16 %10, ptr %6, align 2, !tbaa !7
  call void @llvm.lifetime.start.p0(i64 8, ptr %7) #12
  call void @llvm.lifetime.start.p0(i64 8, ptr %8) #12
  store i64 0, ptr %8, align 8, !tbaa !126
  %11 = load i32, ptr @prte_oob_base, align 8, !tbaa !64
  %12 = icmp sge i32 %11, 0
  br i1 %12, label %13, label %26

13:                                               ; preds = %1
  %14 = load i32, ptr @prte_oob_base, align 8, !tbaa !64
  %15 = icmp slt i32 %14, 64
  br i1 %15, label %16, label %26

16:                                               ; preds = %13
  %17 = load i32, ptr @prte_oob_base, align 8, !tbaa !64
  %18 = sext i32 %17 to i64
  %19 = getelementptr inbounds [0 x %struct.pmix_output_desc_t], ptr @pmix_output_info, i64 0, i64 %18
  %20 = getelementptr inbounds nuw %struct.pmix_output_desc_t, ptr %19, i32 0, i32 2
  %21 = load i32, ptr %20, align 4, !tbaa !34
  %22 = icmp sge i32 %21, 7
  br i1 %22, label %23, label %26

23:                                               ; preds = %16
  %24 = load i32, ptr @prte_oob_base, align 8, !tbaa !64
  %25 = call ptr @prte_util_print_name_args(ptr noundef @prte_process_info)
  call void (i32, ptr, ...) @pmix_output(i32 noundef %24, ptr noundef @.str.60, ptr noundef %25)
  br label %26

26:                                               ; preds = %23, %16, %13, %1
  %27 = getelementptr inbounds nuw %struct.prte_oob_tcp_hdr_t, ptr %5, i32 0, i32 0
  call void @llvm.memcpy.p0.p0.i64(ptr align 4 %27, ptr align 8 @prte_process_info, i64 260, i1 false), !tbaa.struct !127
  %28 = getelementptr inbounds nuw %struct.prte_oob_tcp_hdr_t, ptr %5, i32 0, i32 1
  %29 = load ptr, ptr %3, align 8, !tbaa !9
  %30 = getelementptr inbounds nuw %struct.prte_oob_tcp_peer_t, ptr %29, i32 0, i32 1
  call void @llvm.memcpy.p0.p0.i64(ptr align 4 %28, ptr align 8 %30, i64 260, i1 false), !tbaa.struct !127
  %31 = getelementptr inbounds nuw %struct.prte_oob_tcp_hdr_t, ptr %5, i32 0, i32 5
  store i8 1, ptr %31, align 4, !tbaa !128
  %32 = getelementptr inbounds nuw %struct.prte_oob_tcp_hdr_t, ptr %5, i32 0, i32 2
  store i32 0, ptr %32, align 4, !tbaa !130
  %33 = getelementptr inbounds nuw %struct.prte_oob_tcp_hdr_t, ptr %5, i32 0, i32 3
  store i32 0, ptr %33, align 4, !tbaa !131
  %34 = getelementptr inbounds nuw %struct.prte_oob_tcp_hdr_t, ptr %5, i32 0, i32 6
  %35 = getelementptr inbounds [32 x i8], ptr %34, i64 0, i64 0
  call void @llvm.memset.p0.i64(ptr align 1 %35, i8 0, i64 32, i1 false)
  %36 = call i64 @strlen(ptr noundef @prte_version_string) #15
  %37 = add i64 2, %36
  %38 = add i64 %37, 1
  store i64 %38, ptr %7, align 8, !tbaa !126
  %39 = load i64, ptr %7, align 8, !tbaa !126
  %40 = trunc i64 %39 to i32
  %41 = getelementptr inbounds nuw %struct.prte_oob_tcp_hdr_t, ptr %5, i32 0, i32 4
  store i32 %40, ptr %41, align 4, !tbaa !132
  %42 = getelementptr inbounds nuw %struct.prte_oob_tcp_hdr_t, ptr %5, i32 0, i32 0
  %43 = getelementptr inbounds nuw %struct.pmix_proc, ptr %42, i32 0, i32 1
  %44 = load i32, ptr %43, align 4, !tbaa !133
  %45 = call i32 @__bswap_32(i32 noundef %44)
  %46 = getelementptr inbounds nuw %struct.prte_oob_tcp_hdr_t, ptr %5, i32 0, i32 0
  %47 = getelementptr inbounds nuw %struct.pmix_proc, ptr %46, i32 0, i32 1
  store i32 %45, ptr %47, align 4, !tbaa !133
  %48 = getelementptr inbounds nuw %struct.prte_oob_tcp_hdr_t, ptr %5, i32 0, i32 1
  %49 = getelementptr inbounds nuw %struct.pmix_proc, ptr %48, i32 0, i32 1
  %50 = load i32, ptr %49, align 4, !tbaa !134
  %51 = call i32 @__bswap_32(i32 noundef %50)
  %52 = getelementptr inbounds nuw %struct.prte_oob_tcp_hdr_t, ptr %5, i32 0, i32 1
  %53 = getelementptr inbounds nuw %struct.pmix_proc, ptr %52, i32 0, i32 1
  store i32 %51, ptr %53, align 4, !tbaa !134
  %54 = getelementptr inbounds nuw %struct.prte_oob_tcp_hdr_t, ptr %5, i32 0, i32 2
  %55 = load i32, ptr %54, align 4, !tbaa !130
  %56 = call i32 @__bswap_32(i32 noundef %55)
  %57 = getelementptr inbounds nuw %struct.prte_oob_tcp_hdr_t, ptr %5, i32 0, i32 2
  store i32 %56, ptr %57, align 4, !tbaa !130
  %58 = getelementptr inbounds nuw %struct.prte_oob_tcp_hdr_t, ptr %5, i32 0, i32 4
  %59 = load i32, ptr %58, align 4, !tbaa !132
  %60 = call i32 @__bswap_32(i32 noundef %59)
  %61 = getelementptr inbounds nuw %struct.prte_oob_tcp_hdr_t, ptr %5, i32 0, i32 4
  store i32 %60, ptr %61, align 4, !tbaa !132
  %62 = load i64, ptr %7, align 8, !tbaa !126
  %63 = add i64 %62, 568
  store i64 %63, ptr %7, align 8, !tbaa !126
  %64 = load i64, ptr %7, align 8, !tbaa !126
  %65 = call noalias ptr @malloc(i64 noundef %64) #16
  store ptr %65, ptr %4, align 8, !tbaa !99
  %66 = icmp eq ptr null, %65
  br i1 %66, label %67, label %68

67:                                               ; preds = %26
  store i32 -2, ptr %2, align 4
  store i32 1, ptr %9, align 4
  br label %104

68:                                               ; preds = %26
  %69 = load ptr, ptr %4, align 8, !tbaa !99
  %70 = load i64, ptr %7, align 8, !tbaa !126
  call void @llvm.memset.p0.i64(ptr align 1 %69, i8 0, i64 %70, i1 false)
  %71 = load ptr, ptr %4, align 8, !tbaa !99
  %72 = load i64, ptr %8, align 8, !tbaa !126
  %73 = getelementptr inbounds nuw i8, ptr %71, i64 %72
  call void @llvm.memcpy.p0.p0.i64(ptr align 1 %73, ptr align 4 %5, i64 568, i1 false)
  %74 = load i64, ptr %8, align 8, !tbaa !126
  %75 = add i64 %74, 568
  store i64 %75, ptr %8, align 8, !tbaa !126
  %76 = load ptr, ptr %4, align 8, !tbaa !99
  %77 = load i64, ptr %8, align 8, !tbaa !126
  %78 = getelementptr inbounds nuw i8, ptr %76, i64 %77
  call void @llvm.memcpy.p0.p0.i64(ptr align 1 %78, ptr align 2 %6, i64 2, i1 false)
  %79 = load i64, ptr %8, align 8, !tbaa !126
  %80 = add i64 %79, 2
  store i64 %80, ptr %8, align 8, !tbaa !126
  %81 = load ptr, ptr %4, align 8, !tbaa !99
  %82 = load i64, ptr %8, align 8, !tbaa !126
  %83 = getelementptr inbounds nuw i8, ptr %81, i64 %82
  %84 = call i64 @strlen(ptr noundef @prte_version_string) #15
  %85 = add i64 %84, 1
  call void @llvm.memcpy.p0.p0.i64(ptr align 1 %83, ptr align 1 @prte_version_string, i64 %85, i1 false)
  %86 = call i64 @strlen(ptr noundef @prte_version_string) #15
  %87 = add i64 %86, 1
  %88 = load i64, ptr %8, align 8, !tbaa !126
  %89 = add i64 %88, %87
  store i64 %89, ptr %8, align 8, !tbaa !126
  %90 = load ptr, ptr %3, align 8, !tbaa !9
  %91 = getelementptr inbounds nuw %struct.prte_oob_tcp_peer_t, ptr %90, i32 0, i32 3
  %92 = load i32, ptr %91, align 8, !tbaa !68
  %93 = load ptr, ptr %4, align 8, !tbaa !99
  %94 = load i64, ptr %7, align 8, !tbaa !126
  %95 = call i32 @tcp_peer_send_blocking(i32 noundef %92, ptr noundef %93, i64 noundef %94)
  %96 = icmp ne i32 0, %95
  br i1 %96, label %97, label %102

97:                                               ; preds = %68
  %98 = load ptr, ptr %4, align 8, !tbaa !99
  call void @free(ptr noundef %98) #12
  %99 = load ptr, ptr %3, align 8, !tbaa !9
  %100 = getelementptr inbounds nuw %struct.prte_oob_tcp_peer_t, ptr %99, i32 0, i32 6
  store i32 6, ptr %100, align 8, !tbaa !98
  %101 = load ptr, ptr %3, align 8, !tbaa !9
  call void @prte_oob_tcp_peer_close(ptr noundef %101)
  store i32 -12, ptr %2, align 4
  store i32 1, ptr %9, align 4
  br label %104

102:                                              ; preds = %68
  %103 = load ptr, ptr %4, align 8, !tbaa !99
  call void @free(ptr noundef %103) #12
  store i32 0, ptr %2, align 4
  store i32 1, ptr %9, align 4
  br label %104

104:                                              ; preds = %102, %97, %67
  call void @llvm.lifetime.end.p0(i64 8, ptr %8) #12
  call void @llvm.lifetime.end.p0(i64 8, ptr %7) #12
  call void @llvm.lifetime.end.p0(i64 2, ptr %6) #12
  call void @llvm.lifetime.end.p0(i64 568, ptr %5) #12
  call void @llvm.lifetime.end.p0(i64 8, ptr %4) #12
  %105 = load i32, ptr %2, align 4
  ret i32 %105
}