; Function Attrs: nounwind uwtable
define internal fastcc range(i32 -12, 1) i32 @tcp_peer_send_connect_ack(ptr noundef %0) unnamed_addr #0 {
  %2 = load i32, ptr @prte_oob_base, align 8, !tbaa !60
  %or.cond = icmp ult i32 %2, 64
  br i1 %or.cond, label %3, label %10

3:                                                ; preds = %1
  %4 = zext nneg i32 %2 to i64
  %5 = getelementptr inbounds nuw [0 x %struct.pmix_output_desc_t], ptr @pmix_output_info, i64 0, i64 %4, i32 2
  %6 = load i32, ptr %5, align 4, !tbaa !32
  %7 = icmp sgt i32 %6, 6
  br i1 %7, label %8, label %10

8:                                                ; preds = %3
  %9 = tail call ptr @prte_util_print_name_args(ptr noundef nonnull @prte_process_info) #15
  tail call void (i32, ptr, ...) @pmix_output(i32 noundef %2, ptr noundef nonnull @.str.60, ptr noundef %9) #15
  br label %10

10:                                               ; preds = %8, %3, %1
  %.sroa.4.0.copyload12 = load i32, ptr getelementptr inbounds nuw (i8, ptr @prte_process_info, i64 256), align 8, !tbaa !12
  %.sroa.7.260..sroa_idx = getelementptr inbounds nuw i8, ptr %0, i64 400
  %.sroa.7.260.copyload = load i32, ptr %.sroa.7.260..sroa_idx, align 8, !tbaa !12
  %11 = tail call i64 @strlen(ptr noundef nonnull dereferenceable(1) @prte_version_string) #19
  %12 = add i64 %11, 571
  %13 = tail call noalias ptr @malloc(i64 noundef %12) #14
  %14 = icmp eq ptr %13, null
  br i1 %14, label %34, label %15

15:                                               ; preds = %10
  %16 = getelementptr inbounds nuw i8, ptr %0, i64 144
  %17 = trunc i64 %11 to i32
  %18 = add i32 %17, 3
  %19 = tail call noundef i32 @llvm.bswap.i32(i32 %18)
  %20 = tail call noundef i32 @llvm.bswap.i32(i32 %.sroa.7.260.copyload)
  %21 = tail call noundef i32 @llvm.bswap.i32(i32 %.sroa.4.0.copyload12)
  %22 = icmp ult i64 %12, 257
  %23 = add i64 %11, 315
  %24 = select i1 %22, i64 0, i64 %23
  %25 = getelementptr i8, ptr %13, i64 256
  tail call void @llvm.memset.p0.i64(ptr align 1 %25, i8 0, i64 %24, i1 false)
  tail call void @llvm.memcpy.p0.p0.i64(ptr noundef nonnull align 1 dereferenceable(256) %13, ptr noundef nonnull align 8 dereferenceable(256) @prte_process_info, i64 256, i1 false)
  %.sroa.4.0..sroa_idx = getelementptr inbounds nuw i8, ptr %13, i64 256
  store i32 %21, ptr %.sroa.4.0..sroa_idx, align 1
  %.sroa.6.0..sroa_idx = getelementptr inbounds nuw i8, ptr %13, i64 260
  tail call void @llvm.memcpy.p0.p0.i64(ptr noundef nonnull align 1 dereferenceable(256) %.sroa.6.0..sroa_idx, ptr noundef nonnull align 8 dereferenceable(256) %16, i64 256, i1 false)
  %.sroa.7.0..sroa_idx = getelementptr inbounds nuw i8, ptr %13, i64 516
  store i32 %20, ptr %.sroa.7.0..sroa_idx, align 1
  %.sroa.9.0..sroa_idx = getelementptr inbounds nuw i8, ptr %13, i64 520
  store i32 0, ptr %.sroa.9.0..sroa_idx, align 1
  %.sroa.12.0..sroa_idx = getelementptr inbounds nuw i8, ptr %13, i64 524
  store i32 0, ptr %.sroa.12.0..sroa_idx, align 1
  %.sroa.13.0..sroa_idx = getelementptr inbounds nuw i8, ptr %13, i64 528
  store i32 %19, ptr %.sroa.13.0..sroa_idx, align 1
  %.sroa.16.0..sroa_idx = getelementptr inbounds nuw i8, ptr %13, i64 532
  store i8 1, ptr %.sroa.16.0..sroa_idx, align 1
  %.sroa.17.0..sroa_idx = getelementptr inbounds nuw i8, ptr %13, i64 533
  tail call void @llvm.memset.p0.i64(ptr noundef nonnull align 1 dereferenceable(32) %.sroa.17.0..sroa_idx, i8 0, i64 32, i1 false)
  %26 = getelementptr inbounds nuw i8, ptr %13, i64 568
  store i16 256, ptr %26, align 1
  %27 = getelementptr inbounds nuw i8, ptr %13, i64 570
  %28 = add i64 %11, 1
  tail call void @llvm.memcpy.p0.p0.i64(ptr nonnull align 1 %27, ptr nonnull align 1 @prte_version_string, i64 %28, i1 false)
  %29 = getelementptr inbounds nuw i8, ptr %0, i64 416
  %30 = load i32, ptr %29, align 8, !tbaa !64
  %31 = tail call fastcc i32 @tcp_peer_send_blocking(i32 noundef %30, ptr noundef %13, i64 noundef %12)
  %.not = icmp eq i32 %31, 0
  tail call void @free(ptr noundef nonnull %13) #15
  br i1 %.not, label %34, label %32

32:                                               ; preds = %15
  %33 = getelementptr inbounds nuw i8, ptr %0, i64 704
  store i32 6, ptr %33, align 8, !tbaa !95
  tail call void @prte_oob_tcp_peer_close(ptr noundef nonnull %0)
  br label %34

34:                                               ; preds = %15, %10, %32
  %.0 = phi i32 [ -12, %32 ], [ -2, %10 ], [ 0, %15 ]
  ret i32 %.0
}